target datalayout = "e-m:e-p270:32:32-p271:32:32-p272:64:64-i64:64-i128:128-f80:128-n8:16:32:64-S128"
target triple = "x86_64-unknown-linux-gnu"

%"class.std::__cxx11::basic_string" = type { %"struct.std::__cxx11::basic_string<char>::_Alloc_hider", i64, %union.anon }
%"struct.std::__cxx11::basic_string<char>::_Alloc_hider" = type { ptr }
%union.anon = type { i64, [8 x i8] }
%"struct.proxygen::(anonymous namespace)::FormattedDate" = type { i64, %"class.std::__cxx11::basic_string" }
%"struct.folly::SingletonThreadLocal<proxygen::(anonymous namespace)::FormattedDate, DateTag>::ObjectWrapper" = type { %"struct.proxygen::(anonymous namespace)::FormattedDate" }
%"class.folly::detail::ScopeGuardImpl" = type { %"class.folly::detail::ScopeGuardImplBase", %class.anon.141 }
%"class.folly::detail::ScopeGuardImplBase" = type { i8 }
%class.anon.141 = type { ptr }

; Function Attrs: mustprogress nounwind uwtable
define internal void @_ZN8proxygen12_GLOBAL__N_113FormattedDateD2Ev(ptr noundef nonnull align 8 dereferenceable(40) %this) unnamed_addr #4 align 2 {
entry:
  %this.addr = alloca ptr, align 8
  store ptr %this, ptr %this.addr, align 8
  %this1 = load ptr, ptr %this.addr, align 8
  %date = getelementptr inbounds %"struct.proxygen::(anonymous namespace)::FormattedDate", ptr %this1, i32 0, i32 1
  call void @_ZNSt7__cxx1112basic_stringIcSt11char_traitsIcESaIcEED1Ev(ptr noundef nonnull align 8 dereferenceable(32) %date) #2
  ret void
}

; Function Attrs: mustprogress nounwind uwtable
define internal void @_ZN5folly20SingletonThreadLocalIN8proxygen12_GLOBAL__N_113FormattedDateEZNS1_11HTTPMessage16formatDateHeaderB5cxx11EvE7DateTagNS_6detail11DefaultMakeIS3_EES5_E13ObjectWrapperD2Ev(ptr noundef nonnull align 8 dereferenceable(40) %this) unnamed_addr #4 align 2 {
entry:
  %this.addr = alloca ptr, align 8
  store ptr %this, ptr %this.addr, align 8
  %this1 = load ptr, ptr %this.addr, align 8
  %object = getelementptr inbounds %"struct.folly::SingletonThreadLocal<proxygen::(anonymous namespace)::FormattedDate, DateTag>::ObjectWrapper", ptr %this1, i32 0, i32 0
  call void @_ZN8proxygen12_GLOBAL__N_113FormattedDateD2Ev(ptr noundef nonnull align 8 dereferenceable(40) %object) #2
  ret void
}

; Function Attrs: mustprogress nounwind uwtable
define internal void @_ZN5folly20SingletonThreadLocalIN8proxygen12_GLOBAL__N_113FormattedDateEZNS1_11HTTPMessage16formatDateHeaderB5cxx11EvE7DateTagNS_6detail11DefaultMakeIS3_EES5_E7WrapperD2Ev(ptr noundef nonnull align 8 dereferenceable(152) %this) unnamed_addr #4 align 2 {
entry:
  %this.addr = alloca ptr, align 8
  store ptr %this, ptr %this.addr, align 8
  %this1 = load ptr, ptr %this.addr, align 8
  %0 = getelementptr inbounds i8, ptr %this1, i64 40
  call void @_ZN5folly6detail25SingletonThreadLocalState7WrapperD2Ev(ptr noundef nonnull align 8 dereferenceable(112) %0) #2
  call void @_ZN5folly20SingletonThreadLocalIN8proxygen12_GLOBAL__N_113FormattedDateEZNS1_11HTTPMessage16formatDateHeaderB5cxx11EvE7DateTagNS_6detail11DefaultMakeIS3_EES5_E13ObjectWrapperD2Ev(ptr noundef nonnull align 8 dereferenceable(40) %this1) #2
  ret void
}

; Function Attrs: noreturn nounwind uwtable
define linkonce_odr hidden void @__clang_call_terminate(ptr noundef %0) #8 comdat {
  %2 = call ptr @__cxa_begin_catch(ptr %0) #2
  call void @_ZSt9terminatev() #27
  unreachable
}

; Function Attrs: mustprogress nounwind uwtable
define internal void @_ZZN5folly14ThreadLocalPtrINS_20SingletonThreadLocalIN8proxygen12_GLOBAL__N_113FormattedDateEZNS2_11HTTPMessage16formatDateHeaderB5cxx11EvE7DateTagNS_6detail11DefaultMakeIS4_EES6_E7WrapperES6_vE5resetEPSB_ENKUlvE_clEv(ptr noundef nonnull align 8 dereferenceable(8) %this) #4 align 2 {
entry:
  %this.addr = alloca ptr, align 8
  store ptr %this, ptr %this.addr, align 8
  %this1 = load ptr, ptr %this.addr, align 8
  %0 = getelementptr inbounds %class.anon.141, ptr %this1, i32 0, i32 0
  %1 = load ptr, ptr %0, align 8
  %2 = load ptr, ptr %1, align 8
  %isnull = icmp eq ptr %2, null
  br i1 %isnull, label %delete.end, label %delete.notnull

delete.notnull:                                   ; preds = %entry
  call void @_ZN5folly20SingletonThreadLocalIN8proxygen12_GLOBAL__N_113FormattedDateEZNS1_11HTTPMessage16formatDateHeaderB5cxx11EvE7DateTagNS_6detail11DefaultMakeIS3_EES5_E7WrapperD2Ev(ptr noundef nonnull align 8 dereferenceable(152) %2) #2
  call void @_ZdlPv(ptr noundef %2) #26
  br label %delete.end

delete.end:                                       ; preds = %delete.notnull, %entry
  ret void
}

; Function Attrs: mustprogress nounwind uwtable
define internal void @_ZN5folly6detail14ScopeGuardImplIZNS_14ThreadLocalPtrINS_20SingletonThreadLocalIN8proxygen12_GLOBAL__N_113FormattedDateEZNS4_11HTTPMessage16formatDateHeaderB5cxx11EvE7DateTagNS0_11DefaultMakeIS6_EES8_E7WrapperES8_vE5resetEPSC_EUlvE_Lb1EE7executeEv(ptr noundef nonnull align 8 dereferenceable(16) %this) #4 align 2 personality ptr @__gxx_personality_v0 {
entry:
  %f.addr.i = alloca ptr, align 8
  %t.addr.i = alloca ptr, align 8
  %c.addr.i = alloca ptr, align 8
  %exn.slot.i = alloca ptr, align 8
  %ehselector.slot.i = alloca i32, align 4
  %this.addr = alloca ptr, align 8
  %catcher_word = alloca i64, align 8
  %catcher = alloca ptr, align 8
  store ptr %this, ptr %this.addr, align 8
  %this1 = load ptr, ptr %this.addr, align 8
  store i64 ptrtoint (ptr @_ZN5folly6detail18ScopeGuardImplBase9terminateEv to i64), ptr %catcher_word, align 8
  %0 = load i64, ptr %catcher_word, align 8
  %1 = inttoptr i64 %0 to ptr
  store ptr %1, ptr %catcher, align 8
  %function_ = getelementptr inbounds %"class.folly::detail::ScopeGuardImpl", ptr %this1, i32 0, i32 1
  store ptr %function_, ptr %t.addr.i, align 8
  store ptr %catcher, ptr %c.addr.i, align 8
  %2 = load ptr, ptr %t.addr.i, align 8
  invoke void @_ZZN5folly14ThreadLocalPtrINS_20SingletonThreadLocalIN8proxygen12_GLOBAL__N_113FormattedDateEZNS2_11HTTPMessage16formatDateHeaderB5cxx11EvE7DateTagNS_6detail11DefaultMakeIS4_EES6_E7WrapperES6_vE5resetEPSB_ENKUlvE_clEv(ptr noundef nonnull align 8 dereferenceable(8) %2)
          to label %invoke.cont.i unwind label %lpad.i

invoke.cont.i:                                    ; preds = %entry
  br label %_ZN5folly15catch_exceptionIRZNS_14ThreadLocalPtrINS_20SingletonThreadLocalIN8proxygen12_GLOBAL__N_113FormattedDateEZNS3_11HTTPMessage16formatDateHeaderB5cxx11EvE7DateTagNS_6detail11DefaultMakeIS5_EES7_E7WrapperES7_vE5resetEPSC_EUlvE_RPFvvEJEvEET2_OT_OT0_DpOT1_.exit

lpad.i:                                           ; preds = %entry
  %3 = landingpad { ptr, i32 }
          catch ptr null
          catch ptr null
  %4 = extractvalue { ptr, i32 } %3, 0
  store ptr %4, ptr %exn.slot.i, align 8
  %5 = extractvalue { ptr, i32 } %3, 1
  store i32 %5, ptr %ehselector.slot.i, align 4
  %exn.i = load ptr, ptr %exn.slot.i, align 8
  %6 = call ptr @__cxa_begin_catch(ptr %exn.i) #2
  %7 = load ptr, ptr %c.addr.i, align 8
  store ptr %7, ptr %f.addr.i, align 8
  %8 = load ptr, ptr %f.addr.i, align 8
  %9 = load ptr, ptr %8, align 8
  invoke void %9()
          to label %_ZN5folly11invoke_coldIRPFvvEJES1_TnNSt9enable_ifIXsr3std11is_functionIT1_EE5valueEiE4typeELi0EvEET3_OT_DpOT0_.exit unwind label %lpad1.i

_ZN5folly11invoke_coldIRPFvvEJES1_TnNSt9enable_ifIXsr3std11is_functionIT1_EE5valueEiE4typeELi0EvEET3_OT_DpOT0_.exit: ; preds = %lpad.i
  br label %invoke.cont2.i

invoke.cont2.i:                                   ; preds = %_ZN5folly11invoke_coldIRPFvvEJES1_TnNSt9enable_ifIXsr3std11is_functionIT1_EE5valueEiE4typeELi0EvEET3_OT_DpOT0_.exit
  invoke void @__cxa_end_catch()
          to label %.noexc unwind label %terminate.lpad

.noexc:                                           ; preds = %invoke.cont2.i
  br label %_ZN5folly15catch_exceptionIRZNS_14ThreadLocalPtrINS_20SingletonThreadLocalIN8proxygen12_GLOBAL__N_113FormattedDateEZNS3_11HTTPMessage16formatDateHeaderB5cxx11EvE7DateTagNS_6detail11DefaultMakeIS5_EES7_E7WrapperES7_vE5resetEPSC_EUlvE_RPFvvEJEvEET2_OT_OT0_DpOT1_.exit

lpad1.i:                                          ; preds = %lpad.i
  %10 = landingpad { ptr, i32 }
          cleanup
          catch ptr null
  %11 = extractvalue { ptr, i32 } %10, 0
  store ptr %11, ptr %exn.slot.i, align 8
  %12 = extractvalue { ptr, i32 } %10, 1
  store i32 %12, ptr %ehselector.slot.i, align 4
  invoke void @__cxa_end_catch()
          to label %invoke.cont3.i unwind label %terminate.lpad.i

invoke.cont3.i:                                   ; preds = %lpad1.i
  %exn4.i = load ptr, ptr %exn.slot.i, align 8
  %sel.i = load i32, ptr %ehselector.slot.i, align 4
  %lpad.val.i = insertvalue { ptr, i32 } poison, ptr %exn4.i, 0
  %lpad.val5.i = insertvalue { ptr, i32 } %lpad.val.i, i32 %sel.i, 1
  br label %terminate.lpad.body

terminate.lpad.i:                                 ; preds = %lpad1.i
  %13 = landingpad { ptr, i32 }
          catch ptr null
          catch ptr null
  %14 = extractvalue { ptr, i32 } %13, 0
  call void @__clang_call_terminate(ptr %14) #27
  unreachable

_ZN5folly15catch_exceptionIRZNS_14ThreadLocalPtrINS_20SingletonThreadLocalIN8proxygen12_GLOBAL__N_113FormattedDateEZNS3_11HTTPMessage16formatDateHeaderB5cxx11EvE7DateTagNS_6detail11DefaultMakeIS5_EES7_E7WrapperES7_vE5resetEPSC_EUlvE_RPFvvEJEvEET2_OT_OT0_DpOT1_.exit: ; preds = %.noexc, %invoke.cont.i
  br label %invoke.cont

invoke.cont:                                      ; preds = %_ZN5folly15catch_exceptionIRZNS_14ThreadLocalPtrINS_20SingletonThreadLocalIN8proxygen12_GLOBAL__N_113FormattedDateEZNS3_11HTTPMessage16formatDateHeaderB5cxx11EvE7DateTagNS_6detail11DefaultMakeIS5_EES7_E7WrapperES7_vE5resetEPSC_EUlvE_RPFvvEJEvEET2_OT_OT0_DpOT1_.exit
  ret void

terminate.lpad:                                   ; preds = %invoke.cont2.i
  %15 = landingpad { ptr, i32 }
          catch ptr null
  br label %terminate.lpad.body

terminate.lpad.body:                              ; preds = %terminate.lpad, %invoke.cont3.i
  %eh.lpad-body = phi { ptr, i32 } [ %15, %terminate.lpad ], [ %lpad.val5.i, %invoke.cont3.i ]
  %16 = extractvalue { ptr, i32 } %eh.lpad-body, 0
  call void @__clang_call_terminate(ptr %16) #27
  unreachable
}

; Function Attrs: mustprogress nounwind uwtable
define internal void @_ZN5folly6detail14ScopeGuardImplIZNS_14ThreadLocalPtrINS_20SingletonThreadLocalIN8proxygen12_GLOBAL__N_113FormattedDateEZNS4_11HTTPMessage16formatDateHeaderB5cxx11EvE7DateTagNS0_11DefaultMakeIS6_EES8_E7WrapperES8_vE5resetEPSC_EUlvE_Lb1EED2Ev(ptr noundef nonnull align 8 dereferenceable(16) %this) unnamed_addr #4 align 2 {
entry:
  %this.addr = alloca ptr, align 8
  store ptr %this, ptr %this.addr, align 8
  %this1 = load ptr, ptr %this.addr, align 8
  %dismissed_ = getelementptr inbounds %"class.folly::detail::ScopeGuardImplBase", ptr %this1, i32 0, i32 0
  %0 = load i8, ptr %dismissed_, align 8
  %tobool = trunc i8 %0 to i1
  br i1 %tobool, label %if.end, label %if.then

if.then:                                          ; preds = %entry
  call void @_ZN5folly6detail14ScopeGuardImplIZNS_14ThreadLocalPtrINS_20SingletonThreadLocalIN8proxygen12_GLOBAL__N_113FormattedDateEZNS4_11HTTPMessage16formatDateHeaderB5cxx11EvE7DateTagNS0_11DefaultMakeIS6_EES8_E7WrapperES8_vE5resetEPSC_EUlvE_Lb1EE7executeEv(ptr noundef nonnull align 8 dereferenceable(16) %this1) #2
  br label %if.end

if.end:                                           ; preds = %if.then, %entry
  ret void
}