; Function Attrs: mustprogress nounwind uwtable
define internal fastcc void @_ZN5folly6detail14ScopeGuardImplIZNS_14ThreadLocalPtrINS_20SingletonThreadLocalIN8proxygen12_GLOBAL__N_113FormattedDateEZNS4_11HTTPMessage16formatDateHeaderB5cxx11EvE7DateTagNS0_11DefaultMakeIS6_EES8_E7WrapperES8_vE5resetEPSC_EUlvE_Lb1EED2Ev(i8 %this.0.val, ptr nocapture readonly %this.8.val) unnamed_addr #3 align 2 personality ptr @__gxx_personality_v0 {
entry:
  %0 = and i8 %this.0.val, 1
  %tobool.not = icmp eq i8 %0, 0
  br i1 %tobool.not, label %if.then, label %if.end

if.then:                                          ; preds = %entry
  %this.val.val = load ptr, ptr %this.8.val, align 8
  %isnull.i.i = icmp eq ptr %this.val.val, null
  br i1 %isnull.i.i, label %if.end, label %delete.notnull.i.i

delete.notnull.i.i:                               ; preds = %if.then
  %1 = getelementptr inbounds i8, ptr %this.val.val, i64 40
  tail call void @_ZN5folly6detail25SingletonThreadLocalState7WrapperD2Ev(ptr noundef nonnull align 8 dereferenceable(112) %1) #23
  %date.i.i.i.i.i = getelementptr inbounds i8, ptr %this.val.val, i64 8
  tail call void @_ZNSt7__cxx1112basic_stringIcSt11char_traitsIcESaIcEED1Ev(ptr noundef nonnull align 8 dereferenceable(32) %date.i.i.i.i.i) #23
  tail call void @_ZdlPv(ptr noundef nonnull %this.val.val) #34
  br label %if.end

if.end:                                           ; preds = %delete.notnull.i.i, %if.then, %entry
  ret void
}